; ModuleID = '10/1340.c'
source_filename = "10/1340.c"
target datalayout = "e-m:e-p270:32:32-p271:32:32-p272:64:64-i64:64-f80:128-n8:16:32:64-S128"
target triple = "x86_64-pc-linux-gnu"

@s = common dso_local global [30 x i32] zeroinitializer, align 16
@.str = private unnamed_addr constant [3 x i8] c"%d\00", align 1
@.str.1 = private unnamed_addr constant [4 x i8] c"%d\0A\00", align 1

; Function Attrs: noinline nounwind uwtable
define dso_local void @main() #0 {
  %1 = alloca [100 x i32], align 16
  %2 = alloca i32, align 4
  %3 = alloca i32, align 4
  %4 = alloca i32, align 4
  store i32 0, i32* %3, align 4
  br label %5

5:                                                ; preds = %12, %0
  %6 = load i32, i32* %3, align 4
  %7 = icmp slt i32 %6, 30
  br i1 %7, label %8, label %15

8:                                                ; preds = %5
  %9 = load i32, i32* %3, align 4
  %10 = sext i32 %9 to i64
  %11 = getelementptr inbounds [30 x i32], [30 x i32]* @s, i64 0, i64 %10
  store i32 1, i32* %11, align 4
  br label %12

12:                                               ; preds = %8
  %13 = load i32, i32* %3, align 4
  %14 = add nsw i32 %13, 1
  store i32 %14, i32* %3, align 4
  br label %5

15:                                               ; preds = %5
  %16 = call i32 (i8*, ...) @__isoc99_scanf(i8* getelementptr inbounds ([3 x i8], [3 x i8]* @.str, i64 0, i64 0), i32* %2)
  %17 = load i32, i32* %2, align 4
  store i32 %17, i32* %3, align 4
  br label %18

18:                                               ; preds = %26, %15
  %19 = load i32, i32* %3, align 4
  %20 = icmp sgt i32 %19, 0
  br i1 %20, label %21, label %29

21:                                               ; preds = %18
  %22 = load i32, i32* %3, align 4
  %23 = sext i32 %22 to i64
  %24 = getelementptr inbounds [100 x i32], [100 x i32]* %1, i64 0, i64 %23
  %25 = call i32 (i8*, ...) @__isoc99_scanf(i8* getelementptr inbounds ([3 x i8], [3 x i8]* @.str, i64 0, i64 0), i32* %24)
  br label %26

26:                                               ; preds = %21
  %27 = load i32, i32* %3, align 4
  %28 = add nsw i32 %27, -1
  store i32 %28, i32* %3, align 4
  br label %18

29:                                               ; preds = %18
  %30 = load i32, i32* %2, align 4
  %31 = add nsw i32 %30, 1
  %32 = sext i32 %31 to i64
  %33 = getelementptr inbounds [100 x i32], [100 x i32]* %1, i64 0, i64 %32
  store i32 100000, i32* %33, align 4
  %34 = getelementptr inbounds [100 x i32], [100 x i32]* %1, i64 0, i64 0
  %35 = load i32, i32* %2, align 4
  %36 = add nsw i32 %35, 1
  %37 = call i32 @max(i32* %34, i32 %36)
  store i32 %37, i32* %4, align 4
  %38 = load i32, i32* %4, align 4
  %39 = sub nsw i32 %38, 1
  %40 = call i32 (i8*, ...) @printf(i8* getelementptr inbounds ([4 x i8], [4 x i8]* @.str.1, i64 0, i64 0), i32 %39)
  ret void
}

declare dso_local i32 @__isoc99_scanf(i8*, ...) #1

; Function Attrs: noinline nounwind uwtable
define dso_local i32 @max(i32* %0, i32 %1) #0 {
  %3 = alloca i32, align 4
  %4 = alloca i32*, align 8
  %5 = alloca i32, align 4
  %6 = alloca i32, align 4
  %7 = alloca i32, align 4
  %8 = alloca i32, align 4
  store i32* %0, i32** %4, align 8
  store i32 %1, i32* %5, align 4
  store i32 0, i32* %8, align 4
  %9 = load i32*, i32** %4, align 8
  %10 = load i32, i32* %5, align 4
  %11 = sext i32 %10 to i64
  %12 = getelementptr inbounds i32, i32* %9, i64 %11
  %13 = load i32, i32* %12, align 4
  store i32 %13, i32* %6, align 4
  %14 = load i32, i32* %5, align 4
  %15 = icmp eq i32 %14, 1
  br i1 %15, label %16, label %17

16:                                               ; preds = %2
  store i32 1, i32* %3, align 4
  br label %48

17:                                               ; preds = %2
  %18 = load i32, i32* %5, align 4
  %19 = sub nsw i32 %18, 1
  store i32 %19, i32* %7, align 4
  br label %20

20:                                               ; preds = %42, %17
  %21 = load i32, i32* %7, align 4
  %22 = icmp sgt i32 %21, 0
  br i1 %22, label %23, label %45

23:                                               ; preds = %20
  %24 = load i32, i32* %6, align 4
  %25 = load i32*, i32** %4, align 8
  %26 = load i32, i32* %7, align 4
  %27 = sext i32 %26 to i64
  %28 = getelementptr inbounds i32, i32* %25, i64 %27
  %29 = load i32, i32* %28, align 4
  %30 = icmp sge i32 %24, %29
  br i1 %30, label %31, label %41

31:                                               ; preds = %23
  %32 = load i32, i32* %8, align 4
  %33 = load i32*, i32** %4, align 8
  %34 = load i32, i32* %7, align 4
  %35 = call i32 @max(i32* %33, i32 %34)
  %36 = icmp slt i32 %32, %35
  br i1 %36, label %37, label %41

37:                                               ; preds = %31
  %38 = load i32*, i32** %4, align 8
  %39 = load i32, i32* %7, align 4
  %40 = call i32 @max(i32* %38, i32 %39)
  store i32 %40, i32* %8, align 4
  br label %41

41:                                               ; preds = %37, %31, %23
  br label %42

42:                                               ; preds = %41
  %43 = load i32, i32* %7, align 4
  %44 = add nsw i32 %43, -1
  store i32 %44, i32* %7, align 4
  br label %20

45:                                               ; preds = %20
  %46 = load i32, i32* %8, align 4
  %47 = add nsw i32 %46, 1
  store i32 %47, i32* %3, align 4
  br label %48

48:                                               ; preds = %45, %16
  %49 = load i32, i32* %3, align 4
  ret i32 %49
}

declare dso_local i32 @printf(i8*, ...) #1


!llvm.module.flags = !{!0}
!llvm.ident = !{!1}

!0 = !{i32 1, !"wchar_size", i32 4}
!1 = !{!"clang version 10.0.0-4ubuntu1 "}
